target datalayout = "e-m:e-p270:32:32-p271:32:32-p272:64:64-i64:64-i128:128-f80:128-n8:16:32:64-S128"
target triple = "x86_64-pc-linux-gnu"

%"class.icu_77::UnicodeString" = type { %"class.icu_77::Replaceable", %"union.icu_77::UnicodeString::StackBufferOrFields" }
%"class.icu_77::Replaceable" = type { %"class.icu_77::UObject" }
%"class.icu_77::UObject" = type { ptr }
%"union.icu_77::UnicodeString::StackBufferOrFields" = type { %struct.anon.0, [32 x i8] }
%struct.anon.0 = type { i16, i32, i32, ptr }
%"class.icu_77::DateTimePatternGenerator" = type <{ %"class.icu_77::UObject", %"class.icu_77::Locale", ptr, ptr, ptr, ptr, [16 x %"class.icu_77::UnicodeString"], [16 x [3 x %"class.icu_77::UnicodeString"]], [4 x %"class.icu_77::UnicodeString"], %"class.icu_77::UnicodeString", ptr, ptr, %"class.icu_77::UnicodeString", i16, [2 x i8], [7 x i32], i32, [4 x i8] }>
%"class.icu_77::Locale" = type <{ %"class.icu_77::UObject", [12 x i8], [6 x i8], [4 x i8], [2 x i8], i32, [4 x i8], ptr, [157 x i8], [3 x i8], ptr, i8, [7 x i8] }>
%"class.icu_77::ConstChar16Ptr" = type { ptr }

@_ZZNK6icu_7724DateTimePatternGenerator17getDateTimeFormatE16UDateFormatStyleR10UErrorCodeE11emptyString = internal global %"class.icu_77::UnicodeString" zeroinitializer, align 8
@_ZGVZNK6icu_7724DateTimePatternGenerator17getDateTimeFormatE16UDateFormatStyleR10UErrorCodeE11emptyString = internal global i64 0, align 8
@.str.12 = private unnamed_addr constant [1 x i16] zeroinitializer, align 2
@__dso_handle = external hidden global i8

; Function Attrs: inlinehint mustprogress nounwind uwtable
define internal noundef signext i8 @_ZL9U_FAILURE10UErrorCode(i32 noundef %0) #2 {
  %2 = alloca i32, align 4
  store i32 %0, ptr %2, align 4, !tbaa !15
  %3 = load i32, ptr %2, align 4, !tbaa !15
  %4 = icmp sgt i32 %3, 0
  %5 = zext i1 %4 to i8
  ret i8 %5
}

; Function Attrs: inlinehint mustprogress nounwind uwtable
define linkonce_odr void @_ZN6icu_7714ConstChar16PtrD2Ev(ptr noundef nonnull align 8 dereferenceable(8) %0) unnamed_addr #2 comdat align 2 {
  %2 = alloca ptr, align 8
  store ptr %0, ptr %2, align 8, !tbaa !214
  %3 = load ptr, ptr %2, align 8
  %4 = getelementptr inbounds nuw %"class.icu_77::ConstChar16Ptr", ptr %3, i32 0, i32 0
  %5 = load ptr, ptr %4, align 8, !tbaa !216
  call void asm sideeffect "", "rm,~{memory},~{dirflag},~{fpsr},~{flags}"(ptr %5) #13, !srcloc !218
  ret void
}

; Function Attrs: inlinehint mustprogress nounwind uwtable
define linkonce_odr void @_ZN6icu_7714ConstChar16PtrC2EPKDs(ptr noundef nonnull align 8 dereferenceable(8) %0, ptr noundef %1) unnamed_addr #2 comdat align 2 {
  %3 = alloca ptr, align 8
  %4 = alloca ptr, align 8
  store ptr %0, ptr %3, align 8, !tbaa !214
  store ptr %1, ptr %4, align 8, !tbaa !107
  %5 = load ptr, ptr %3, align 8
  %6 = getelementptr inbounds nuw %"class.icu_77::ConstChar16Ptr", ptr %5, i32 0, i32 0
  %7 = load ptr, ptr %4, align 8, !tbaa !107
  store ptr %7, ptr %6, align 8, !tbaa !216
  ret void
}

; Function Attrs: mustprogress uwtable
define noundef nonnull align 8 dereferenceable(64) ptr @_ZNK6icu_7724DateTimePatternGenerator17getDateTimeFormatE16UDateFormatStyleR10UErrorCode(ptr noundef nonnull align 8 dereferenceable(4796) %0, i32 noundef %1, ptr noundef nonnull align 4 dereferenceable(4) %2) #1 align 2 personality ptr @__gxx_personality_v0 {
  %4 = alloca ptr, align 8
  %5 = alloca ptr, align 8
  %6 = alloca i32, align 4
  %7 = alloca ptr, align 8
  %8 = alloca %"class.icu_77::ConstChar16Ptr", align 8
  %9 = alloca ptr, align 8
  %10 = alloca i32, align 4
  store ptr %0, ptr %5, align 8, !tbaa !23
  store i32 %1, ptr %6, align 4, !tbaa !194
  store ptr %2, ptr %7, align 8, !tbaa !22
  %11 = load ptr, ptr %5, align 8
  %12 = load atomic i8, ptr @_ZGVZNK6icu_7724DateTimePatternGenerator17getDateTimeFormatE16UDateFormatStyleR10UErrorCodeE11emptyString acquire, align 8
  %13 = icmp eq i8 %12, 0
  br i1 %13, label %14, label %21, !prof !210

14:                                               ; preds = %3
  %15 = call i32 @__cxa_guard_acquire(ptr @_ZGVZNK6icu_7724DateTimePatternGenerator17getDateTimeFormatE16UDateFormatStyleR10UErrorCodeE11emptyString) #13
  %16 = icmp ne i32 %15, 0
  br i1 %16, label %17, label %21

17:                                               ; preds = %14
  invoke void @_ZN6icu_7714ConstChar16PtrC2EPKDs(ptr noundef nonnull align 8 dereferenceable(8) %8, ptr noundef @.str.12)
          to label %18 unwind label %27

18:                                               ; preds = %17
  invoke void @_ZN6icu_7713UnicodeStringC1EaNS_14ConstChar16PtrEi(ptr noundef nonnull align 8 dereferenceable(64) @_ZZNK6icu_7724DateTimePatternGenerator17getDateTimeFormatE16UDateFormatStyleR10UErrorCodeE11emptyString, i8 noundef signext 1, ptr noundef %8, i32 noundef -1)
          to label %19 unwind label %31

19:                                               ; preds = %18
  call void @_ZN6icu_7714ConstChar16PtrD2Ev(ptr noundef nonnull align 8 dereferenceable(8) %8) #13
  %20 = call i32 @__cxa_atexit(ptr @_ZN6icu_7713UnicodeStringD1Ev, ptr @_ZZNK6icu_7724DateTimePatternGenerator17getDateTimeFormatE16UDateFormatStyleR10UErrorCodeE11emptyString, ptr @__dso_handle) #13
  call void @__cxa_guard_release(ptr @_ZGVZNK6icu_7724DateTimePatternGenerator17getDateTimeFormatE16UDateFormatStyleR10UErrorCodeE11emptyString) #13
  br label %21

21:                                               ; preds = %19, %14, %3
  %22 = load ptr, ptr %7, align 8, !tbaa !22
  %23 = load i32, ptr %22, align 4, !tbaa !15
  %24 = call noundef signext i8 @_ZL9U_FAILURE10UErrorCode(i32 noundef %23)
  %25 = icmp ne i8 %24, 0
  br i1 %25, label %26, label %36

26:                                               ; preds = %21
  store ptr @_ZZNK6icu_7724DateTimePatternGenerator17getDateTimeFormatE16UDateFormatStyleR10UErrorCodeE11emptyString, ptr %4, align 8
  br label %49

27:                                               ; preds = %17
  %28 = landingpad { ptr, i32 }
          cleanup
  %29 = extractvalue { ptr, i32 } %28, 0
  store ptr %29, ptr %9, align 8
  %30 = extractvalue { ptr, i32 } %28, 1
  store i32 %30, ptr %10, align 4
  br label %35

31:                                               ; preds = %18
  %32 = landingpad { ptr, i32 }
          cleanup
  %33 = extractvalue { ptr, i32 } %32, 0
  store ptr %33, ptr %9, align 8
  %34 = extractvalue { ptr, i32 } %32, 1
  store i32 %34, ptr %10, align 4
  call void @_ZN6icu_7714ConstChar16PtrD2Ev(ptr noundef nonnull align 8 dereferenceable(8) %8) #13
  br label %35

35:                                               ; preds = %31, %27
  call void @__cxa_guard_abort(ptr @_ZGVZNK6icu_7724DateTimePatternGenerator17getDateTimeFormatE16UDateFormatStyleR10UErrorCodeE11emptyString) #13
  br label %51

36:                                               ; preds = %21
  %37 = load i32, ptr %6, align 4, !tbaa !194
  %38 = icmp slt i32 %37, 0
  br i1 %38, label %42, label %39

39:                                               ; preds = %36
  %40 = load i32, ptr %6, align 4, !tbaa !194
  %41 = icmp sgt i32 %40, 3
  br i1 %41, label %42, label %44

42:                                               ; preds = %39, %36
  %43 = load ptr, ptr %7, align 8, !tbaa !22
  store i32 1, ptr %43, align 4, !tbaa !15
  store ptr @_ZZNK6icu_7724DateTimePatternGenerator17getDateTimeFormatE16UDateFormatStyleR10UErrorCodeE11emptyString, ptr %4, align 8
  br label %49

44:                                               ; preds = %39
  %45 = getelementptr inbounds nuw %"class.icu_77::DateTimePatternGenerator", ptr %11, i32 0, i32 8
  %46 = load i32, ptr %6, align 4, !tbaa !194
  %47 = sext i32 %46 to i64
  %48 = getelementptr inbounds [4 x %"class.icu_77::UnicodeString"], ptr %45, i64 0, i64 %47
  store ptr %48, ptr %4, align 8
  br label %49

49:                                               ; preds = %44, %42, %26
  %50 = load ptr, ptr %4, align 8
  ret ptr %50

51:                                               ; preds = %35
  %52 = load ptr, ptr %9, align 8
  %53 = load i32, ptr %10, align 4
  %54 = insertvalue { ptr, i32 } poison, ptr %52, 0
  %55 = insertvalue { ptr, i32 } %54, i32 %53, 1
  resume { ptr, i32 } %55
}