; Function Attrs: mustprogress uwtable
define noundef nonnull align 8 dereferenceable(64) ptr @_ZNK6icu_7724DateTimePatternGenerator17getDateTimeFormatE16UDateFormatStyleR10UErrorCode(ptr noundef nonnull readnone align 8 dereferenceable(4796) %0, i32 noundef %1, ptr noundef nonnull align 4 captures(none) dereferenceable(4) %2) local_unnamed_addr #1 align 2 personality ptr @__gxx_personality_v0 {
  %4 = alloca %"class.icu_77::ConstChar16Ptr", align 8
  %5 = load atomic i8, ptr @_ZGVZNK6icu_7724DateTimePatternGenerator17getDateTimeFormatE16UDateFormatStyleR10UErrorCodeE11emptyString acquire, align 8
  %6 = icmp eq i8 %5, 0
  br i1 %6, label %7, label %13, !prof !155

7:                                                ; preds = %3
  %8 = tail call i32 @__cxa_guard_acquire(ptr nonnull @_ZGVZNK6icu_7724DateTimePatternGenerator17getDateTimeFormatE16UDateFormatStyleR10UErrorCodeE11emptyString) #35
  %.not = icmp eq i32 %8, 0
  br i1 %.not, label %13, label %9

9:                                                ; preds = %7
  store ptr @.str.12, ptr %4, align 8, !tbaa !90
  invoke void @_ZN6icu_7713UnicodeStringC1EaNS_14ConstChar16PtrEi(ptr noundef nonnull align 8 dereferenceable(64) @_ZZNK6icu_7724DateTimePatternGenerator17getDateTimeFormatE16UDateFormatStyleR10UErrorCodeE11emptyString, i8 noundef signext 1, ptr noundef nonnull %4, i32 noundef -1)
          to label %10 unwind label %16

10:                                               ; preds = %9
  %11 = load ptr, ptr %4, align 8, !tbaa !90
  call void asm sideeffect "", "rm,~{memory},~{dirflag},~{fpsr},~{flags}"(ptr %11) #35, !srcloc !89
  %12 = call i32 @__cxa_atexit(ptr nonnull @_ZN6icu_7713UnicodeStringD1Ev, ptr nonnull @_ZZNK6icu_7724DateTimePatternGenerator17getDateTimeFormatE16UDateFormatStyleR10UErrorCodeE11emptyString, ptr nonnull @__dso_handle) #35
  call void @__cxa_guard_release(ptr nonnull @_ZGVZNK6icu_7724DateTimePatternGenerator17getDateTimeFormatE16UDateFormatStyleR10UErrorCodeE11emptyString) #35
  br label %13

13:                                               ; preds = %10, %7, %3
  %14 = load i32, ptr %2, align 4, !tbaa !13
  %15 = icmp slt i32 %14, 1
  br i1 %15, label %19, label %25

16:                                               ; preds = %9
  %17 = landingpad { ptr, i32 }
          cleanup
  %18 = load ptr, ptr %4, align 8, !tbaa !90
  call void asm sideeffect "", "rm,~{memory},~{dirflag},~{fpsr},~{flags}"(ptr %18) #35, !srcloc !89
  call void @__cxa_guard_abort(ptr nonnull @_ZGVZNK6icu_7724DateTimePatternGenerator17getDateTimeFormatE16UDateFormatStyleR10UErrorCodeE11emptyString) #35
  resume { ptr, i32 } %17

19:                                               ; preds = %13
  %or.cond = icmp ugt i32 %1, 3
  br i1 %or.cond, label %20, label %21

20:                                               ; preds = %19
  store i32 1, ptr %2, align 4, !tbaa !13
  br label %25

21:                                               ; preds = %19
  %22 = getelementptr inbounds nuw i8, ptr %0, i64 4360
  %23 = zext nneg i32 %1 to i64
  %24 = getelementptr inbounds nuw [4 x %"class.icu_77::UnicodeString"], ptr %22, i64 0, i64 %23
  br label %25

25:                                               ; preds = %13, %21, %20
  %.0 = phi ptr [ @_ZZNK6icu_7724DateTimePatternGenerator17getDateTimeFormatE16UDateFormatStyleR10UErrorCodeE11emptyString, %20 ], [ %24, %21 ], [ @_ZZNK6icu_7724DateTimePatternGenerator17getDateTimeFormatE16UDateFormatStyleR10UErrorCodeE11emptyString, %13 ]
  ret ptr %.0
}